; Function Attrs: mustprogress nofree norecurse nosync nounwind willreturn memory(argmem: read) uwtable
define hidden noundef range(i32 -1, 2) i32 @_ZN5boost4urls6detail7compareENS_4core17basic_string_viewIcEES4_(ptr nocapture readonly %0, i64 %1, ptr nocapture readonly %2, i64 %3) local_unnamed_addr #6 personality ptr @__gxx_personality_v0 {
  %.sroa.speculated = tail call i64 @llvm.umin.i64(i64 %3, i64 %1)
  %.not33.not = icmp eq i64 %.sroa.speculated, 0
  br i1 %.not33.not, label %._crit_edge, label %.lr.ph

5:                                                ; preds = %12
  %6 = add nuw i64 %.01334, 1
  %exitcond.not = icmp eq i64 %6, %.sroa.speculated
  br i1 %exitcond.not, label %._crit_edge, label %.lr.ph, !llvm.loop !19

.lr.ph:                                           ; preds = %4, %5
  %.01334 = phi i64 [ %6, %5 ], [ 0, %4 ]
  %7 = getelementptr inbounds nuw i8, ptr %0, i64 %.01334
  %8 = load i8, ptr %7, align 1, !tbaa !9
  %9 = getelementptr inbounds nuw i8, ptr %2, i64 %.01334
  %10 = load i8, ptr %9, align 1, !tbaa !9
  %11 = icmp slt i8 %8, %10
  br i1 %11, label %.thread30, label %12

12:                                               ; preds = %.lr.ph
  %.not32 = icmp slt i8 %10, %8
  br i1 %.not32, label %.thread30, label %5

._crit_edge:                                      ; preds = %5, %4
  %13 = icmp eq i64 %1, %3
  br i1 %13, label %.thread30, label %14

14:                                               ; preds = %._crit_edge
  %15 = icmp ult i64 %1, %3
  %.18 = select i1 %15, i32 -1, i32 1
  br label %.thread30

.thread30:                                        ; preds = %.lr.ph, %12, %14, %._crit_edge
  %.3 = phi i32 [ 0, %._crit_edge ], [ %.18, %14 ], [ -1, %.lr.ph ], [ 1, %12 ]
  ret i32 %.3
}